target datalayout = "e-m:e-p270:32:32-p271:32:32-p272:64:64-i64:64-i128:128-f80:128-n8:16:32:64-S128"
target triple = "x86_64-pc-linux-gnu"

%struct.mbedtls_ssl_config = type { i32, i32, i8, i8, i8, i8, i8, i8, i8, i8, i8, i8, i16, i8, i8, i8, ptr, i32, ptr, ptr, ptr, ptr, ptr, ptr, ptr, ptr, ptr, ptr, ptr, ptr, ptr, ptr, ptr, ptr, ptr, ptr, ptr, i64, ptr, ptr, ptr, ptr, ptr, ptr, ptr, ptr, %struct.mbedtls_mpi, %struct.mbedtls_mpi, ptr, i64, ptr, i64, ptr, i32, i32, i32, i32, [8 x i8], i32, i32, %union.mbedtls_ssl_user_data_t, ptr, ptr }
%struct.mbedtls_mpi = type { ptr, i16, i16 }
%union.mbedtls_ssl_user_data_t = type { i64 }
%struct.mbedtls_ssl_key_cert = type { ptr, ptr, ptr }

; Function Attrs: nounwind uwtable
define internal void @ssl_key_cert_free(ptr noundef %0) #0 {
  %2 = alloca ptr, align 8
  %3 = alloca ptr, align 8
  %4 = alloca ptr, align 8
  store ptr %0, ptr %2, align 8, !tbaa !188
  call void @llvm.lifetime.start.p0(i64 8, ptr %3) #11
  %5 = load ptr, ptr %2, align 8, !tbaa !188
  store ptr %5, ptr %3, align 8, !tbaa !188
  call void @llvm.lifetime.start.p0(i64 8, ptr %4) #11
  br label %6

6:                                                ; preds = %9, %1
  %7 = load ptr, ptr %3, align 8, !tbaa !188
  %8 = icmp ne ptr %7, null
  br i1 %8, label %9, label %15

9:                                                ; preds = %6
  %10 = load ptr, ptr %3, align 8, !tbaa !188
  %11 = getelementptr inbounds nuw %struct.mbedtls_ssl_key_cert, ptr %10, i32 0, i32 2
  %12 = load ptr, ptr %11, align 8, !tbaa !192
  store ptr %12, ptr %4, align 8, !tbaa !188
  %13 = load ptr, ptr %3, align 8, !tbaa !188
  call void @free(ptr noundef %13) #11
  %14 = load ptr, ptr %4, align 8, !tbaa !188
  store ptr %14, ptr %3, align 8, !tbaa !188
  br label %6, !llvm.loop !259

15:                                               ; preds = %6
  call void @llvm.lifetime.end.p0(i64 8, ptr %4) #11
  call void @llvm.lifetime.end.p0(i64 8, ptr %3) #11
  ret void
}

; Function Attrs: nounwind uwtable
define hidden void @mbedtls_ssl_config_free(ptr noundef %0) #0 {
  %2 = alloca ptr, align 8
  store ptr %0, ptr %2, align 8, !tbaa !3
  %3 = load ptr, ptr %2, align 8, !tbaa !3
  %4 = icmp eq ptr %3, null
  br i1 %4, label %5, label %6

5:                                                ; preds = %1
  br label %47

6:                                                ; preds = %1
  %7 = load ptr, ptr %2, align 8, !tbaa !3
  %8 = getelementptr inbounds nuw %struct.mbedtls_ssl_config, ptr %7, i32 0, i32 46
  call void @mbedtls_mpi_free(ptr noundef %8)
  %9 = load ptr, ptr %2, align 8, !tbaa !3
  %10 = getelementptr inbounds nuw %struct.mbedtls_ssl_config, ptr %9, i32 0, i32 47
  call void @mbedtls_mpi_free(ptr noundef %10)
  %11 = load ptr, ptr %2, align 8, !tbaa !3
  %12 = getelementptr inbounds nuw %struct.mbedtls_ssl_config, ptr %11, i32 0, i32 48
  %13 = load ptr, ptr %12, align 8, !tbaa !207
  %14 = icmp ne ptr %13, null
  br i1 %14, label %15, label %26

15:                                               ; preds = %6
  %16 = load ptr, ptr %2, align 8, !tbaa !3
  %17 = getelementptr inbounds nuw %struct.mbedtls_ssl_config, ptr %16, i32 0, i32 48
  %18 = load ptr, ptr %17, align 8, !tbaa !207
  %19 = load ptr, ptr %2, align 8, !tbaa !3
  %20 = getelementptr inbounds nuw %struct.mbedtls_ssl_config, ptr %19, i32 0, i32 49
  %21 = load i64, ptr %20, align 8, !tbaa !208
  call void @mbedtls_zeroize_and_free(ptr noundef %18, i64 noundef %21)
  %22 = load ptr, ptr %2, align 8, !tbaa !3
  %23 = getelementptr inbounds nuw %struct.mbedtls_ssl_config, ptr %22, i32 0, i32 48
  store ptr null, ptr %23, align 8, !tbaa !207
  %24 = load ptr, ptr %2, align 8, !tbaa !3
  %25 = getelementptr inbounds nuw %struct.mbedtls_ssl_config, ptr %24, i32 0, i32 49
  store i64 0, ptr %25, align 8, !tbaa !208
  br label %26

26:                                               ; preds = %15, %6
  %27 = load ptr, ptr %2, align 8, !tbaa !3
  %28 = getelementptr inbounds nuw %struct.mbedtls_ssl_config, ptr %27, i32 0, i32 50
  %29 = load ptr, ptr %28, align 8, !tbaa !205
  %30 = icmp ne ptr %29, null
  br i1 %30, label %31, label %42

31:                                               ; preds = %26
  %32 = load ptr, ptr %2, align 8, !tbaa !3
  %33 = getelementptr inbounds nuw %struct.mbedtls_ssl_config, ptr %32, i32 0, i32 50
  %34 = load ptr, ptr %33, align 8, !tbaa !205
  %35 = load ptr, ptr %2, align 8, !tbaa !3
  %36 = getelementptr inbounds nuw %struct.mbedtls_ssl_config, ptr %35, i32 0, i32 51
  %37 = load i64, ptr %36, align 8, !tbaa !206
  call void @mbedtls_zeroize_and_free(ptr noundef %34, i64 noundef %37)
  %38 = load ptr, ptr %2, align 8, !tbaa !3
  %39 = getelementptr inbounds nuw %struct.mbedtls_ssl_config, ptr %38, i32 0, i32 50
  store ptr null, ptr %39, align 8, !tbaa !205
  %40 = load ptr, ptr %2, align 8, !tbaa !3
  %41 = getelementptr inbounds nuw %struct.mbedtls_ssl_config, ptr %40, i32 0, i32 51
  store i64 0, ptr %41, align 8, !tbaa !206
  br label %42

42:                                               ; preds = %31, %26
  %43 = load ptr, ptr %2, align 8, !tbaa !3
  %44 = getelementptr inbounds nuw %struct.mbedtls_ssl_config, ptr %43, i32 0, i32 39
  %45 = load ptr, ptr %44, align 8, !tbaa !272
  call void @ssl_key_cert_free(ptr noundef %45)
  %46 = load ptr, ptr %2, align 8, !tbaa !3
  call void @mbedtls_platform_zeroize(ptr noundef %46, i64 noundef 392)
  br label %47

47:                                               ; preds = %42, %5
  ret void
}