; Function Attrs: nounwind uwtable
define hidden void @mbedtls_ssl_config_free(ptr noundef %0) local_unnamed_addr #1 {
  %2 = icmp eq ptr %0, null
  br i1 %2, label %22, label %3

3:                                                ; preds = %1
  %4 = getelementptr inbounds nuw i8, ptr %0, i64 264
  tail call void @mbedtls_mpi_free(ptr noundef nonnull %4) #26
  %5 = getelementptr inbounds nuw i8, ptr %0, i64 280
  tail call void @mbedtls_mpi_free(ptr noundef nonnull %5) #26
  %6 = getelementptr inbounds nuw i8, ptr %0, i64 296
  %7 = load ptr, ptr %6, align 8, !tbaa !159
  %.not = icmp eq ptr %7, null
  br i1 %.not, label %11, label %8

8:                                                ; preds = %3
  %9 = getelementptr inbounds nuw i8, ptr %0, i64 304
  %10 = load i64, ptr %9, align 8, !tbaa !160
  tail call void @mbedtls_zeroize_and_free(ptr noundef nonnull %7, i64 noundef %10) #26
  tail call void @llvm.memset.p0.i64(ptr noundef nonnull align 8 dereferenceable(16) %6, i8 0, i64 16, i1 false)
  br label %11

11:                                               ; preds = %8, %3
  %12 = getelementptr inbounds nuw i8, ptr %0, i64 312
  %13 = load ptr, ptr %12, align 8, !tbaa !157
  %.not17 = icmp eq ptr %13, null
  br i1 %.not17, label %17, label %14

14:                                               ; preds = %11
  %15 = getelementptr inbounds nuw i8, ptr %0, i64 320
  %16 = load i64, ptr %15, align 8, !tbaa !158
  tail call void @mbedtls_zeroize_and_free(ptr noundef nonnull %13, i64 noundef %16) #26
  tail call void @llvm.memset.p0.i64(ptr noundef nonnull align 8 dereferenceable(16) %12, i8 0, i64 16, i1 false)
  br label %17

17:                                               ; preds = %14, %11
  %18 = getelementptr inbounds nuw i8, ptr %0, i64 208
  %19 = load ptr, ptr %18, align 8, !tbaa !248
  %.not5.i = icmp eq ptr %19, null
  br i1 %.not5.i, label %ssl_key_cert_free.exit, label %.lr.ph.i

.lr.ph.i:                                         ; preds = %17, %.lr.ph.i
  %.06.i = phi ptr [ %21, %.lr.ph.i ], [ %19, %17 ]
  %20 = getelementptr inbounds nuw i8, ptr %.06.i, i64 16
  %21 = load ptr, ptr %20, align 8, !tbaa !165
  tail call void @free(ptr noundef nonnull %.06.i) #26
  %.not.i = icmp eq ptr %21, null
  br i1 %.not.i, label %ssl_key_cert_free.exit, label %.lr.ph.i, !llvm.loop !168

ssl_key_cert_free.exit:                           ; preds = %.lr.ph.i, %17
  tail call void @mbedtls_platform_zeroize(ptr noundef nonnull %0, i64 noundef 392) #26
  br label %22

22:                                               ; preds = %1, %ssl_key_cert_free.exit
  ret void
}